(ipoplib
Population
p0
(dp1
S'modelfile'
p2
S'/media/sander/DataStorage1/GIT/GitLab/ABM@ECB/ABM_at_ECB/code/test_models/FLAME_MWE/Hello_Agent/model.xml'
p3
sS'popidmap'
p4
(dp5
sS'name'
p6
S''
p7
sS'popmap'
p8
(dp9
sS'numregions'
p10
I1
sS'regions'
p11
(lp12
(ipoplib
PopRegion
p13
(dp14
S'numAgents'
p15
(dp16
VSender
p17
I1
sVReceiver
p18
I1
ssS'parentpop'
p19
g0
sg8
(dp20
sS'regionid'
p21
I0
sS'pop'
p22
(lp23
sS'agentinitorder'
p24
NsS'model'
p25
(ipoplib
Model
p26
(dp27
S'info'
p28
(dp29
S'date'
p30
g7
sg6
VTest Model - Sending a message
p31
sS'domdic'
p32
(ipoplib
MultiDict
p33
(dp34
S'cs'
p35
I0
sS'dic'
p36
(dp37
Vxmodel
p38
(lp39
(ipoplib
MultiDict
p40
(dp41
g35
I0
sg36
(dp42
Vname
p43
(lp44
g31
asVmessages
p45
(lp46
(ipoplib
MultiDict
p47
(dp48
g35
I0
sg36
(dp49
Vmessage
p50
(lp51
(ipoplib
MultiDict
p52
(dp53
g35
I0
sg36
(dp54
Vvariables
p55
(lp56
(ipoplib
MultiDict
p57
(dp58
g35
I0
sg36
(dp59
Vvariable
p60
(lp61
(ipoplib
MultiDict
p62
(dp63
g35
I0
sg36
(dp64
Vtype
p65
(lp66
Vint
p67
asg43
(lp68
Vid
p69
assbassbasg43
(lp70
Vhello
p71
assbassbasVenvironment
p72
(lp73
(ipoplib
MultiDict
p74
(dp75
g35
I0
sg36
(dp76
Vfunctionfiles
p77
(lp78
(ipoplib
MultiDict
p79
(dp80
g35
I0
sg36
(dp81
Vfile
p82
(lp83
VReceiver_agent_functions.c
p84
aVSender_agent_functions.c
p85
assbassbasVversion
p86
(lp87
VVersion 1.0, 06.10.2017
p88
asVagents
p89
(lp90
(ipoplib
MultiDict
p91
(dp92
g35
I0
sg36
(dp93
Vxagent
p94
(lp95
(ipoplib
MultiDict
p96
(dp97
g35
I0
sg36
(dp98
Vfunctions
p99
(lp100
(ipoplib
MultiDict
p101
(dp102
g35
I0
sg36
(dp103
Vfunction
p104
(lp105
(ipoplib
MultiDict
p106
(dp107
g35
I0
sg36
(dp108
Voutputs
p109
(lp110
(ipoplib
MultiDict
p111
(dp112
g35
I0
sg36
(dp113
Voutput
p114
(lp115
(ipoplib
MultiDict
p116
(dp117
g35
I0
sg36
(dp118
Vmessagename
p119
(lp120
Vhello
p121
assbassbasg43
(lp122
Vsender_sends_mesg
p123
asVcurrentstate
p124
(lp125
Vstart_Sender
p126
asVnextstate
p127
(lp128
Vend_Sender
p129
assbassbasg43
(lp130
VSender
p131
asVmemory
p132
(lp133
(ipoplib
MultiDict
p134
(dp135
g35
I0
sg36
(dp136
g60
(lp137
(ipoplib
MultiDict
p138
(dp139
g35
I0
sg36
(dp140
g65
(lp141
Vint
p142
asg43
(lp143
Vid
p144
asVdescription
p145
(lp146
VAgent ID.
p147
assbassbassba(ipoplib
MultiDict
p148
(dp149
g35
I0
sg36
(dp150
g99
(lp151
(ipoplib
MultiDict
p152
(dp153
g35
I0
sg36
(dp154
g104
(lp155
(ipoplib
MultiDict
p156
(dp157
g35
I0
sg36
(dp158
Vinputs
p159
(lp160
(ipoplib
MultiDict
p161
(dp162
g35
I0
sg36
(dp163
Vinput
p164
(lp165
(ipoplib
MultiDict
p166
(dp167
g35
I0
sg36
(dp168
Vmessagename
p169
(lp170
Vhello
p171
assbassbasg43
(lp172
Vreceiver_reads_mesg
p173
asVcurrentstate
p174
(lp175
Vstart_Receiver
p176
asVnextstate
p177
(lp178
Vend_Receiver
p179
assbassbasg43
(lp180
VReceiver
p181
asg132
(lp182
(ipoplib
MultiDict
p183
(dp184
g35
I0
sg36
(dp185
g60
(lp186
(ipoplib
MultiDict
p187
(dp188
g35
I0
sg36
(dp189
g65
(lp190
Vint
p191
asg43
(lp192
Vid
p193
asg145
(lp194
VAgent ID.
p195
assbassbassbassbasg145
(lp196
VAuthor: Sander van der Hoog.
p197
assbassbsS'author'
p198
g7
ssS'toplevelpop'
p199
g0
sS'submodels'
p200
(dp201
sS'region'
p202
g13
sS'popforconstants'
p203
NsS'agents'
p204
(lp205
(ipoplib
Agent
p206
(dp207
g6
g131
sS'dependencereferers'
p208
(dp209
sS'varinitorder'
p210
(lp211
g144
asS'memvars'
p212
(lp213
(ipoplib
MemVar
p214
(dp215
S'isarray'
p216
I0
sS'originaltype'
p217
g142
sg6
g144
sS'parent'
p218
NsS'agent'
p219
g206
sS'static'
p220
I0
sS'initforms'
p221
(dp222
g144
(ipoplib
BaseForm
p223
(dp224
S'vtype'
p225
g7
sg218
g214
sS'form'
p226
S'0'
p227
sg6
NsbssS'originalname'
p228
g144
sS'candidates'
p229
(dp230
sg25
g26
sS'type'
p231
g142
sS'desc'
p232
g147
sbasS'depends'
p233
(lp234
sS'finedependencies'
p235
(lp236
sS'memvarreg'
p237
(ipoplib
MemVarRegistry
p238
(dp239
S'depmap'
p240
(dp241
sS'relaxed'
p242
I1
sS'valmap'
p243
(dp244
g144
I0
ssg219
g206
sS'agentinstance'
p245
Nsbsg25
g26
sS'globaldepends'
p246
(lp247
sS'memvarorder'
p248
(lp249
g144
asg232
S'no desc'
p250
sba(ipoplib
Agent
p251
(dp252
g6
g181
sg208
(dp253
sg210
(lp254
g193
asg212
(lp255
(ipoplib
MemVar
p256
(dp257
g216
I0
sg217
g191
sg6
g193
sg218
Nsg219
g251
sg220
I0
sg221
(dp258
g193
(ipoplib
BaseForm
p259
(dp260
g225
g7
sg218
g256
sg226
g227
sg6
Nsbssg228
g193
sg229
(dp261
sg25
g26
sg231
g191
sg232
g195
sbasg233
(lp262
sg235
(lp263
sg237
(ipoplib
MemVarRegistry
p264
(dp265
g240
(dp266
sg242
I1
sg243
(dp267
g193
I0
ssg219
g251
sg245
Nsbsg25
g26
sg246
(lp268
sg248
(lp269
g193
asg232
g250
sbasS'datatypes'
p270
(lp271
sS'constants'
p272
(lp273
sbsbasS'state'
p274
S'newpop'
p275
sS'version'
p276
S'0.2.6'
p277
sS'agentIDcounter'
p278
I3
sS'cancel'
p279
I0
sg25
(ipoplib
Model
p280
(dp281
g28
(dp282
g30
g7
sg6
VTest Model - Sending a message
p283
sg32
(ipoplib
MultiDict
p284
(dp285
g35
I0
sg36
(dp286
Vxmodel
p287
(lp288
(ipoplib
MultiDict
p289
(dp290
g35
I0
sg36
(dp291
Vname
p292
(lp293
g283
asVmessages
p294
(lp295
(ipoplib
MultiDict
p296
(dp297
g35
I0
sg36
(dp298
Vmessage
p299
(lp300
(ipoplib
MultiDict
p301
(dp302
g35
I0
sg36
(dp303
Vvariables
p304
(lp305
(ipoplib
MultiDict
p306
(dp307
g35
I0
sg36
(dp308
Vvariable
p309
(lp310
(ipoplib
MultiDict
p311
(dp312
g35
I0
sg36
(dp313
Vtype
p314
(lp315
Vint
p316
asg292
(lp317
Vid
p318
assbassbasg292
(lp319
Vhello
p320
assbassbasVenvironment
p321
(lp322
(ipoplib
MultiDict
p323
(dp324
g35
I0
sg36
(dp325
Vfunctionfiles
p326
(lp327
(ipoplib
MultiDict
p328
(dp329
g35
I0
sg36
(dp330
Vfile
p331
(lp332
VReceiver_agent_functions.c
p333
aVSender_agent_functions.c
p334
assbassbasVversion
p335
(lp336
VVersion 1.0, 06.10.2017
p337
asVagents
p338
(lp339
(ipoplib
MultiDict
p340
(dp341
g35
I0
sg36
(dp342
Vxagent
p343
(lp344
(ipoplib
MultiDict
p345
(dp346
g35
I0
sg36
(dp347
Vfunctions
p348
(lp349
(ipoplib
MultiDict
p350
(dp351
g35
I0
sg36
(dp352
Vfunction
p353
(lp354
(ipoplib
MultiDict
p355
(dp356
g35
I0
sg36
(dp357
Voutputs
p358
(lp359
(ipoplib
MultiDict
p360
(dp361
g35
I0
sg36
(dp362
Voutput
p363
(lp364
(ipoplib
MultiDict
p365
(dp366
g35
I0
sg36
(dp367
Vmessagename
p368
(lp369
Vhello
p370
assbassbasg292
(lp371
Vsender_sends_mesg
p372
asVcurrentstate
p373
(lp374
Vstart_Sender
p375
asVnextstate
p376
(lp377
Vend_Sender
p378
assbassbasg292
(lp379
g17
asVmemory
p380
(lp381
(ipoplib
MultiDict
p382
(dp383
g35
I0
sg36
(dp384
g309
(lp385
(ipoplib
MultiDict
p386
(dp387
g35
I0
sg36
(dp388
g314
(lp389
Vint
p390
asg292
(lp391
Vid
p392
asVdescription
p393
(lp394
VAgent ID.
p395
assbassbassba(ipoplib
MultiDict
p396
(dp397
g35
I0
sg36
(dp398
g348
(lp399
(ipoplib
MultiDict
p400
(dp401
g35
I0
sg36
(dp402
g353
(lp403
(ipoplib
MultiDict
p404
(dp405
g35
I0
sg36
(dp406
Vinputs
p407
(lp408
(ipoplib
MultiDict
p409
(dp410
g35
I0
sg36
(dp411
Vinput
p412
(lp413
(ipoplib
MultiDict
p414
(dp415
g35
I0
sg36
(dp416
Vmessagename
p417
(lp418
Vhello
p419
assbassbasg292
(lp420
Vreceiver_reads_mesg
p421
asVcurrentstate
p422
(lp423
Vstart_Receiver
p424
asVnextstate
p425
(lp426
Vend_Receiver
p427
assbassbasg292
(lp428
g18
asg380
(lp429
(ipoplib
MultiDict
p430
(dp431
g35
I0
sg36
(dp432
g309
(lp433
(ipoplib
MultiDict
p434
(dp435
g35
I0
sg36
(dp436
g314
(lp437
Vint
p438
asg292
(lp439
Vid
p440
asg393
(lp441
VAgent ID.
p442
assbassbassbassbasg393
(lp443
VAuthor: Sander van der Hoog.
p444
assbassbsg198
g7
ssg199
Nsg200
(dp445
sg202
Nsg203
g0
sg204
(lp446
(ipoplib
Agent
p447
(dp448
g6
g17
sg208
(dp449
sg212
(lp450
(ipoplib
MemVar
p451
(dp452
g216
I0
sg217
g390
sg6
g392
sg218
Nsg219
g447
sg220
I0
sg221
(dp453
g392
(ipoplib
BaseForm
p454
(dp455
g225
g7
sg218
g451
sg226
g227
sg6
Nsbssg228
g392
sg25
g280
sg231
g390
sg232
g395
sbasg233
(lp456
sg25
g280
sg246
(lp457
sg248
(lp458
g392
asg232
g250
sba(ipoplib
Agent
p459
(dp460
g6
g18
sg208
(dp461
sg212
(lp462
(ipoplib
MemVar
p463
(dp464
g216
I0
sg217
g438
sg6
g440
sg218
Nsg219
g459
sg220
I0
sg221
(dp465
g440
(ipoplib
BaseForm
p466
(dp467
g225
g7
sg218
g463
sg226
g227
sg6
Nsbssg228
g440
sg25
g280
sg231
g438
sg232
g442
sbasg233
(lp468
sg25
g280
sg246
(lp469
sg248
(lp470
g440
asg232
g250
sbasg270
(lp471
sg272
(lp472
sbsS'modelxmlregistry'
p473
(ipoplib
ModelXMLRegistry
p474
(dp475
S'map'
p476
(dp477
g3
S' <xmodel version="2">\n <name>Test Model - Sending a message</name>\n <version>Version 1.0, 06.10.2017</version>\n <description>Author: Sander van der Hoog.</description>\n <models/>\n  <environment>\n   <functionFiles>\n   <file>Receiver_agent_functions.c</file>\n   <file>Sender_agent_functions.c</file>\n  </functionFiles>\n  </environment>\n  <agents>\n  <xagent>\n   <name>Sender</name>\n   <description></description>\n   <memory>\n    <variable>\n     <type>int</type>\n     <name>id</name>\n     <description>Agent ID.</description>\n    </variable>\n   </memory>\n    <functions>\n    <function>\n     <name>sender_sends_mesg</name>\n     <description></description>\n     <currentState>start_Sender</currentState>\n     <nextState>end_Sender</nextState>\n     <inputs/>\n     <outputs>\n      <output>\n       <messageName>hello</messageName>\n      </output>\n     </outputs>\n    </function>\n   </functions>\n  </xagent>\n  <xagent>\n   <name>Receiver</name>\n   <description></description>\n   <memory>\n    <variable>\n     <type>int</type>\n     <name>id</name>\n     <description>Agent ID.</description>\n    </variable>\n   </memory>\n   <functions>\n    <function>\n     <name>receiver_reads_mesg</name>\n     <description></description>\n     <currentState>start_Receiver</currentState>\n     <nextState>end_Receiver</nextState>\n     <inputs>\n      <input>\n       <messageName>hello</messageName>\n      </input>\n      </inputs>\n     <outputs/>\n    </function>\n   </functions>\n  </xagent>\n </agents>\n <messages>\n  <message>\n   <name>hello</name>\n   <description></description>\n   <variables>\n    <variable>\n     <type>int</type>\n     <name>id</name>\n     <description></description>\n    </variable>\n   </variables>\n  </message>\n </messages>\n</xmodel>'
p478
ssbsb.