(ipoplib
Population
p0
(dp1
S'modelfile'
p2
S'/home/eurace/Desktop/test_models/data_input/model.xml'
p3
sS'popidmap'
p4
(dp5
sS'name'
p6
S''
p7
sS'popmap'
p8
(dp9
sS'numregions'
p10
I1
sS'regions'
p11
(lp12
(ipoplib
PopRegion
p13
(dp14
S'numAgents'
p15
(dp16
VHousehold
p17
I2
ssS'parentpop'
p18
g0
sg8
(dp19
sS'regionid'
p20
I0
sS'pop'
p21
(lp22
sS'agentinitorder'
p23
NsS'model'
p24
(ipoplib
Model
p25
(dp26
S'info'
p27
(dp28
S'date'
p29
g7
sg6
VNew Model
p30
sS'domdic'
p31
(ipoplib
MultiDict
p32
(dp33
S'cs'
p34
I0
sS'dic'
p35
(dp36
Vxmodel
p37
(lp38
(ipoplib
MultiDict
p39
(dp40
g34
I0
sg35
(dp41
Venvironment
p42
(lp43
(ipoplib
MultiDict
p44
(dp45
g34
I0
sg35
(dp46
sbasVagents
p47
(lp48
(ipoplib
MultiDict
p49
(dp50
g34
I0
sg35
(dp51
Vxagent
p52
(lp53
(ipoplib
MultiDict
p54
(dp55
g34
I0
sg35
(dp56
Vfunctions
p57
(lp58
(ipoplib
MultiDict
p59
(dp60
g34
I0
sg35
(dp61
Vfunction
p62
(lp63
(ipoplib
MultiDict
p64
(dp65
g34
I0
sg35
(dp66
Vname
p67
(lp68
VFunction_1
p69
asVcurrentstate
p70
(lp71
V00
p72
asVnextstate
p73
(lp74
V01
p75
assbassbasg67
(lp76
VHousehold
p77
asVmemory
p78
(lp79
(ipoplib
MultiDict
p80
(dp81
g34
I0
sg35
(dp82
Vvariable
p83
(lp84
(ipoplib
MultiDict
p85
(dp86
g34
I0
sg35
(dp87
Vtype
p88
(lp89
Vint
p90
asg67
(lp91
Vid
p92
assba(ipoplib
MultiDict
p93
(dp94
g34
I0
sg35
(dp95
g88
(lp96
Vdouble
p97
asg67
(lp98
Vvar
p99
assbassbassbassbasg67
(lp100
g30
assbassbsS'author'
p101
g7
ssS'toplevelpop'
p102
g0
sS'submodels'
p103
(dp104
sS'region'
p105
g13
sS'popforconstants'
p106
NsS'agents'
p107
(lp108
(ipoplib
Agent
p109
(dp110
g6
g77
sS'dependencereferers'
p111
(dp112
sS'varinitorder'
p113
(lp114
g92
ag99
asS'memvars'
p115
(lp116
(ipoplib
MemVar
p117
(dp118
S'isarray'
p119
I0
sS'originaltype'
p120
g90
sg6
g92
sS'parent'
p121
NsS'agent'
p122
g109
sS'static'
p123
I0
sS'initforms'
p124
(dp125
g92
(ipoplib
BaseForm
p126
(dp127
S'vtype'
p128
g7
sg121
g117
sS'form'
p129
S'0'
p130
sg6
NsbssS'originalname'
p131
g92
sS'candidates'
p132
(dp133
sg24
g25
sS'type'
p134
g90
sS'desc'
p135
S'no desc'
p136
sba(ipoplib
MemVar
p137
(dp138
g119
I0
sg120
g97
sg6
g99
sg121
Nsg122
g109
sg123
I0
sg124
(dp139
g99
(ipoplib
BaseForm
p140
(dp141
g128
g97
sg121
g137
sg129
S'deterministic(0,1,lambda x:2*x+1) '
p142
sg6
g99
sbssg131
g99
sg132
(dp143
Vvar
p144
S'deterministic(0,1,lambda x:2*x+1) '
p145
ssg24
g25
sg134
g97
sg135
g136
sbasS'depends'
p146
(lp147
sS'finedependencies'
p148
(lp149
sS'memvarreg'
p150
(ipoplib
MemVarRegistry
p151
(dp152
S'depmap'
p153
(dp154
sS'relaxed'
p155
I1
sS'valmap'
p156
(dp157
g99
F1.0
sg92
I0
ssg122
g109
sS'agentinstance'
p158
Nsbsg24
g25
sS'globaldepends'
p159
(lp160
sS'memvarorder'
p161
(lp162
g92
ag99
asg135
g136
sbasS'datatypes'
p163
(lp164
sS'constants'
p165
(lp166
sbsbasS'state'
p167
S'newpop'
p168
sS'version'
p169
S'0.2.6'
p170
sS'agentIDcounter'
p171
I3
sS'cancel'
p172
I0
sg24
(ipoplib
Model
p173
(dp174
g27
(dp175
g29
g7
sg6
VNew Model
p176
sg31
(ipoplib
MultiDict
p177
(dp178
g34
I0
sg35
(dp179
Vxmodel
p180
(lp181
(ipoplib
MultiDict
p182
(dp183
g34
I0
sg35
(dp184
Venvironment
p185
(lp186
(ipoplib
MultiDict
p187
(dp188
g34
I0
sg35
(dp189
sbasVagents
p190
(lp191
(ipoplib
MultiDict
p192
(dp193
g34
I0
sg35
(dp194
Vxagent
p195
(lp196
(ipoplib
MultiDict
p197
(dp198
g34
I0
sg35
(dp199
Vfunctions
p200
(lp201
(ipoplib
MultiDict
p202
(dp203
g34
I0
sg35
(dp204
Vfunction
p205
(lp206
(ipoplib
MultiDict
p207
(dp208
g34
I0
sg35
(dp209
Vname
p210
(lp211
VFunction_1
p212
asVcurrentstate
p213
(lp214
V00
p215
asVnextstate
p216
(lp217
V01
p218
assbassbasg210
(lp219
g17
asVmemory
p220
(lp221
(ipoplib
MultiDict
p222
(dp223
g34
I0
sg35
(dp224
Vvariable
p225
(lp226
(ipoplib
MultiDict
p227
(dp228
g34
I0
sg35
(dp229
Vtype
p230
(lp231
Vint
p232
asg210
(lp233
Vid
p234
assba(ipoplib
MultiDict
p235
(dp236
g34
I0
sg35
(dp237
g230
(lp238
Vdouble
p239
asg210
(lp240
g144
assbassbassbassbasg210
(lp241
g176
assbassbsg101
g7
ssg102
Nsg103
(dp242
sg105
Nsg106
g0
sg107
(lp243
(ipoplib
Agent
p244
(dp245
g6
g17
sg111
(dp246
sg115
(lp247
(ipoplib
MemVar
p248
(dp249
g119
I0
sg120
g232
sg6
g234
sg121
Nsg122
g244
sg123
I0
sg124
(dp250
g234
(ipoplib
BaseForm
p251
(dp252
g128
g7
sg121
g248
sg129
g130
sg6
Nsbssg131
g234
sg24
g173
sg134
g232
sg135
g136
sba(ipoplib
MemVar
p253
(dp254
g119
I0
sg120
g239
sg6
g144
sg121
Nsg122
g244
sg123
I0
sg124
(dp255
g144
(ipoplib
BaseForm
p256
(dp257
g128
g239
sg121
g253
sg129
g130
sg6
g144
sbssg131
g144
sg24
g173
sg134
g239
sg135
g136
sbasg146
(lp258
sg24
g173
sg159
(lp259
sg161
(lp260
g234
ag144
asg135
g136
sbasg163
(lp261
sg165
(lp262
sbsS'modelxmlregistry'
p263
(ipoplib
ModelXMLRegistry
p264
(dp265
S'map'
p266
(dp267
g3
S'<xmodel version="2">\n <name>New Model</name>\n <version></version>\n <description></description>\n <models/>\n <environment>\n  <constants/>\n  <functionFiles/>\n  <timeUnits/>\n  <dataTypes/>\n </environment>\n <agents>\n  <xagent>\n   <name>Household</name>\n   <description></description>\n   <memory>\n    <variable>\n     <type>int</type>\n     <name>id</name>\n     <description></description>\n    </variable>\n    <variable>\n     <type>double</type>\n     <name>var</name>\n     <description></description>\n    </variable>\n   </memory>\n   <functions>\n    <function>\n     <name>Function_1</name>\n     <description></description>\n     <currentState>00</currentState>\n     <nextState>01</nextState>\n     <inputs/>\n     <outputs/>\n    </function>\n   </functions>\n  </xagent>\n </agents>\n <messages/>\n</xmodel>\n'
p268
ssbsb.